target datalayout = "e-m:e-p270:32:32-p271:32:32-p272:64:64-i64:64-i128:128-f80:128-n8:16:32:64-S128"
target triple = "x86_64-pc-linux-gnu"

%struct.BrotliDecoderStateStruct = type { i32, i32, %struct.BrotliBitReader, ptr, ptr, ptr, %union.anon, i64, i32, i32, i32, i32, i32, i32, [4 x i32], i32, i32, ptr, ptr, ptr, ptr, ptr, ptr, %struct.HuffmanTreeGroup, %struct.HuffmanTreeGroup, %struct.HuffmanTreeGroup, ptr, ptr, i32, i32, [3 x i64], i64, [3 x i64], [6 x i64], i64, i64, i64, ptr, ptr, i64, i64, i64, [65 x i32], i32, i32, i8, ptr, ptr, ptr, i64, i32, i32, i32, i32, i32, i32, i64, ptr, ptr, ptr, ptr, [8 x i32], %union.anon.0 }
%struct.BrotliBitReader = type { i64, i64, ptr, ptr, ptr }
%union.anon = type { i64 }
%struct.HuffmanTreeGroup = type { ptr, ptr, i16, i16, i16 }
%union.anon.0 = type { %struct.BrotliMetablockBodyArena }
%struct.BrotliMetablockBodyArena = type { [544 x i8], [544 x i64] }

; Function Attrs: noinline nounwind uwtable
define internal void @WrapRingBuffer(ptr noundef %0) #5 {
  %2 = alloca ptr, align 8
  store ptr %0, ptr %2, align 8, !tbaa !3
  %3 = load ptr, ptr %2, align 8, !tbaa !3
  %4 = getelementptr inbounds nuw %struct.BrotliDecoderStateStruct, ptr %3, i32 0, i32 55
  %5 = load i32, ptr %4, align 4
  %6 = lshr i32 %5, 3
  %7 = and i32 %6, 1
  %8 = icmp ne i32 %7, 0
  br i1 %8, label %9, label %25

9:                                                ; preds = %1
  %10 = load ptr, ptr %2, align 8, !tbaa !3
  %11 = getelementptr inbounds nuw %struct.BrotliDecoderStateStruct, ptr %10, i32 0, i32 17
  %12 = load ptr, ptr %11, align 8, !tbaa !48
  %13 = load ptr, ptr %2, align 8, !tbaa !3
  %14 = getelementptr inbounds nuw %struct.BrotliDecoderStateStruct, ptr %13, i32 0, i32 18
  %15 = load ptr, ptr %14, align 8, !tbaa !135
  %16 = load ptr, ptr %2, align 8, !tbaa !3
  %17 = getelementptr inbounds nuw %struct.BrotliDecoderStateStruct, ptr %16, i32 0, i32 8
  %18 = load i32, ptr %17, align 8, !tbaa !81
  %19 = sext i32 %18 to i64
  call void @llvm.memcpy.p0.p0.i64(ptr align 1 %12, ptr align 1 %15, i64 %19, i1 false)
  %20 = load ptr, ptr %2, align 8, !tbaa !3
  %21 = getelementptr inbounds nuw %struct.BrotliDecoderStateStruct, ptr %20, i32 0, i32 55
  %22 = load i32, ptr %21, align 4
  %23 = and i32 %22, -9
  %24 = or i32 %23, 0
  store i32 %24, ptr %21, align 4
  br label %25

25:                                               ; preds = %9, %1
  ret void
}